target datalayout = "e-m:e-p270:32:32-p271:32:32-p272:64:64-i64:64-i128:128-f80:128-n8:16:32:64-S128"
target triple = "x86_64-pc-linux-gnu"

%class.anon.32 = type { ptr }
%"struct.(anonymous namespace)::spec::Call<void (int &)>::__FT" = type { i8 }

; Function Attrs: mustprogress nounwind uwtable
define internal void @"_ZZN59ProxyInvocationTests_TestMultipleDispatches_Duplicated_Test8TestBodyEvENK3$_0clEi"(ptr noundef nonnull align 8 dereferenceable(8) %0, i32 noundef %1) #7 align 2 {
  %3 = alloca ptr, align 8
  %4 = alloca i32, align 4
  store ptr %0, ptr %3, align 8
  store i32 %1, ptr %4, align 4
  %5 = load ptr, ptr %3, align 8
  %6 = load i32, ptr %4, align 4
  %7 = getelementptr inbounds %class.anon.32, ptr %5, i32 0, i32 0
  %8 = load ptr, ptr %7, align 8
  %9 = load i32, ptr %8, align 4
  %10 = add nsw i32 %9, %6
  store i32 %10, ptr %8, align 4
  ret void
}

; Function Attrs: mustprogress uwtable
define internal void @"_ZSt13__invoke_implIvRZN59ProxyInvocationTests_TestMultipleDispatches_Duplicated_Test8TestBodyEvE3$_0JRiEET_St14__invoke_otherOT0_DpOT1_"(ptr noundef nonnull align 8 dereferenceable(8) %0, ptr noundef nonnull align 4 dereferenceable(4) %1) #4 {
  %3 = alloca ptr, align 8
  %4 = alloca ptr, align 8
  store ptr %0, ptr %3, align 8
  store ptr %1, ptr %4, align 8
  %5 = load ptr, ptr %3, align 8
  %6 = load ptr, ptr %4, align 8
  %7 = load i32, ptr %6, align 4
  call void @"_ZZN59ProxyInvocationTests_TestMultipleDispatches_Duplicated_Test8TestBodyEvENK3$_0clEi"(ptr noundef nonnull align 8 dereferenceable(8) %5, i32 noundef %7)
  ret void
}

; Function Attrs: mustprogress uwtable
define internal void @"_ZSt8__invokeIRZN59ProxyInvocationTests_TestMultipleDispatches_Duplicated_Test8TestBodyEvE3$_0JRiEENSt15__invoke_resultIT_JDpT0_EE4typeEOS5_DpOS6_"(ptr noundef nonnull align 8 dereferenceable(8) %0, ptr noundef nonnull align 4 dereferenceable(4) %1) #4 {
  %3 = alloca ptr, align 8
  %4 = alloca ptr, align 8
  store ptr %0, ptr %3, align 8
  store ptr %1, ptr %4, align 8
  %5 = load ptr, ptr %3, align 8
  %6 = load ptr, ptr %4, align 8
  call void @"_ZSt13__invoke_implIvRZN59ProxyInvocationTests_TestMultipleDispatches_Duplicated_Test8TestBodyEvE3$_0JRiEET_St14__invoke_otherOT0_DpOT1_"(ptr noundef nonnull align 8 dereferenceable(8) %5, ptr noundef nonnull align 4 dereferenceable(4) %6)
  ret void
}

; Function Attrs: mustprogress uwtable
define internal void @"_ZSt6invokeIRZN59ProxyInvocationTests_TestMultipleDispatches_Duplicated_Test8TestBodyEvE3$_0JRiEENSt13invoke_resultIT_JDpT0_EE4typeEOS5_DpOS6_"(ptr noundef nonnull align 8 dereferenceable(8) %0, ptr noundef nonnull align 4 dereferenceable(4) %1) #4 {
  %3 = alloca ptr, align 8
  %4 = alloca ptr, align 8
  store ptr %0, ptr %3, align 8
  store ptr %1, ptr %4, align 8
  %5 = load ptr, ptr %3, align 8
  %6 = load ptr, ptr %4, align 8
  call void @"_ZSt8__invokeIRZN59ProxyInvocationTests_TestMultipleDispatches_Duplicated_Test8TestBodyEvE3$_0JRiEENSt15__invoke_resultIT_JDpT0_EE4typeEOS5_DpOS6_"(ptr noundef nonnull align 8 dereferenceable(8) %5, ptr noundef nonnull align 4 dereferenceable(4) %6)
  ret void
}

; Function Attrs: mustprogress uwtable
define internal void @"_ZN12_GLOBAL__N_14spec4CallIJFvRiEEE4__FTclIZN59ProxyInvocationTests_TestMultipleDispatches_Duplicated_Test8TestBodyEvE3$_0JS2_EEEDcRT_DpOT0_QrqXclsr3stdE6invokefp_spclgssr3stdE7forwardITL0_0_Efp0_EEE"(ptr noundef nonnull align 1 dereferenceable(1) %0, ptr noundef nonnull align 8 dereferenceable(8) %1, ptr noundef nonnull align 4 dereferenceable(4) %2) #4 align 2 {
  %4 = alloca ptr, align 8
  %5 = alloca ptr, align 8
  %6 = alloca ptr, align 8
  store ptr %0, ptr %4, align 8
  store ptr %1, ptr %5, align 8
  store ptr %2, ptr %6, align 8
  %7 = load ptr, ptr %5, align 8
  %8 = load ptr, ptr %6, align 8
  call void @"_ZSt6invokeIRZN59ProxyInvocationTests_TestMultipleDispatches_Duplicated_Test8TestBodyEvE3$_0JRiEENSt13invoke_resultIT_JDpT0_EE4typeEOS5_DpOS6_"(ptr noundef nonnull align 8 dereferenceable(8) %7, ptr noundef nonnull align 4 dereferenceable(4) %8)
  ret void
}

; Function Attrs: mustprogress uwtable
define internal void @"_ZN3pro7details15invoke_dispatchIN12_GLOBAL__N_14spec4CallIJFvRiEEE4__FTEvJRZN59ProxyInvocationTests_TestMultipleDispatches_Duplicated_Test8TestBodyEvE3$_0S5_EEET0_DpOT1_"(ptr noundef nonnull align 8 dereferenceable(8) %0, ptr noundef nonnull align 4 dereferenceable(4) %1) #4 {
  %3 = alloca ptr, align 8
  %4 = alloca ptr, align 8
  %5 = alloca %"struct.(anonymous namespace)::spec::Call<void (int &)>::__FT", align 1
  store ptr %0, ptr %3, align 8
  store ptr %1, ptr %4, align 8
  %6 = load ptr, ptr %3, align 8
  %7 = load ptr, ptr %4, align 8
  call void @"_ZN12_GLOBAL__N_14spec4CallIJFvRiEEE4__FTclIZN59ProxyInvocationTests_TestMultipleDispatches_Duplicated_Test8TestBodyEvE3$_0JS2_EEEDcRT_DpOT0_QrqXclsr3stdE6invokefp_spclgssr3stdE7forwardITL0_0_Efp0_EEE"(ptr noundef nonnull align 1 dereferenceable(1) %5, ptr noundef nonnull align 8 dereferenceable(8) %6, ptr noundef nonnull align 4 dereferenceable(4) %7)
  ret void
}

; Function Attrs: mustprogress nounwind uwtable
define internal noundef nonnull align 8 dereferenceable(8) ptr @"_ZN3pro7details10ptr_traitsIPZN59ProxyInvocationTests_TestMultipleDispatches_Duplicated_Test8TestBodyEvE3$_0E11dereferenceES4_"(ptr noundef %0) #7 align 2 {
  %2 = alloca ptr, align 8
  store ptr %0, ptr %2, align 8
  %3 = load ptr, ptr %2, align 8
  ret ptr %3
}

; Function Attrs: mustprogress nounwind uwtable
define internal noundef ptr @"_ZSt7launderIKPZN59ProxyInvocationTests_TestMultipleDispatches_Duplicated_Test8TestBodyEvE3$_0EPT_S5_"(ptr noundef %0) #7 {
  %2 = alloca ptr, align 8
  store ptr %0, ptr %2, align 8
  %3 = load ptr, ptr %2, align 8
  ret ptr %3
}

; Function Attrs: mustprogress uwtable
define internal void @"_ZN3pro7details25invocation_dispatcher_refIPZN59ProxyInvocationTests_TestMultipleDispatches_Duplicated_Test8TestBodyEvE3$_0N12_GLOBAL__N_14spec4CallIJFvRiEEE4__FTEvJS8_EEET1_PKSt4byteDpT2_"(ptr noundef %0, ptr noundef nonnull align 4 dereferenceable(4) %1) #4 {
  %3 = alloca ptr, align 8
  %4 = alloca ptr, align 8
  store ptr %0, ptr %3, align 8
  store ptr %1, ptr %4, align 8
  %5 = load ptr, ptr %3, align 8
  %6 = call noundef ptr @"_ZSt7launderIKPZN59ProxyInvocationTests_TestMultipleDispatches_Duplicated_Test8TestBodyEvE3$_0EPT_S5_"(ptr noundef %5) #3
  %7 = load ptr, ptr %6, align 8
  %8 = call noundef nonnull align 8 dereferenceable(8) ptr @"_ZN3pro7details10ptr_traitsIPZN59ProxyInvocationTests_TestMultipleDispatches_Duplicated_Test8TestBodyEvE3$_0E11dereferenceES4_"(ptr noundef %7) #3
  %9 = load ptr, ptr %4, align 8
  call void @"_ZN3pro7details15invoke_dispatchIN12_GLOBAL__N_14spec4CallIJFvRiEEE4__FTEvJRZN59ProxyInvocationTests_TestMultipleDispatches_Duplicated_Test8TestBodyEvE3$_0S5_EEET0_DpOT1_"(ptr noundef nonnull align 8 dereferenceable(8) %8, ptr noundef nonnull align 4 dereferenceable(4) %9)
  ret void
}